target datalayout = "e-m:e-p270:32:32-p271:32:32-p272:64:64-i64:64-i128:128-f80:128-n8:16:32:64-S128"
target triple = "x86_64-pc-linux-gnu"

@_ZL8yy_start = internal global i32 0, align 4
@_ZL12yy_more_flag = internal global i32 0, align 4
@_ZL14yy_start_stack = internal global ptr null, align 8
@_ZL18yy_start_stack_ptr = internal global i32 0, align 4
@_ZL20yy_start_stack_depth = internal global i32 0, align 4
@.str.236 = private unnamed_addr constant [46 x i8] c"out of memory expanding start-condition stack\00", align 1

; Function Attrs: mustprogress nounwind uwtable
define dso_local noundef ptr @_Z15V3PreLexreallocPvm(ptr noundef %0, i64 noundef %1) #4 {
  %3 = alloca ptr, align 8
  %4 = alloca i64, align 8
  store ptr %0, ptr %3, align 8, !tbaa !157
  store i64 %1, ptr %4, align 8, !tbaa !11
  %5 = load ptr, ptr %3, align 8, !tbaa !157
  %6 = load i64, ptr %4, align 8, !tbaa !11
  %7 = call ptr @realloc(ptr noundef %5, i64 noundef %6) #30
  ret ptr %7
}

; Function Attrs: mustprogress nounwind uwtable
define dso_local noundef ptr @_Z13V3PreLexallocm(i64 noundef %0) #4 {
  %2 = alloca i64, align 8
  store i64 %0, ptr %2, align 8, !tbaa !11
  %3 = load i64, ptr %2, align 8, !tbaa !11
  %4 = call noalias ptr @malloc(i64 noundef %3) #29
  ret ptr %4
}

; Function Attrs: mustprogress uwtable
define internal void @_ZL13yy_push_statei(i32 noundef %0) #5 {
  %2 = alloca i32, align 4
  %3 = alloca i64, align 8
  store i32 %0, ptr %2, align 4, !tbaa !9
  %4 = load i32, ptr @_ZL18yy_start_stack_ptr, align 4, !tbaa !9
  %5 = load i32, ptr @_ZL20yy_start_stack_depth, align 4, !tbaa !9
  %6 = icmp sge i32 %4, %5
  br i1 %6, label %7, label %27

7:                                                ; preds = %1
  call void @llvm.lifetime.start.p0(i64 8, ptr %3) #3
  %8 = load i32, ptr @_ZL20yy_start_stack_depth, align 4, !tbaa !9
  %9 = add nsw i32 %8, 25
  store i32 %9, ptr @_ZL20yy_start_stack_depth, align 4, !tbaa !9
  %10 = load i32, ptr @_ZL20yy_start_stack_depth, align 4, !tbaa !9
  %11 = sext i32 %10 to i64
  %12 = mul i64 %11, 4
  store i64 %12, ptr %3, align 8, !tbaa !11
  %13 = load ptr, ptr @_ZL14yy_start_stack, align 8, !tbaa !138
  %14 = icmp ne ptr %13, null
  br i1 %14, label %18, label %15

15:                                               ; preds = %7
  %16 = load i64, ptr %3, align 8, !tbaa !11
  %17 = call noundef ptr @_Z13V3PreLexallocm(i64 noundef %16)
  store ptr %17, ptr @_ZL14yy_start_stack, align 8, !tbaa !138
  br label %22

18:                                               ; preds = %7
  %19 = load ptr, ptr @_ZL14yy_start_stack, align 8, !tbaa !138
  %20 = load i64, ptr %3, align 8, !tbaa !11
  %21 = call noundef ptr @_Z15V3PreLexreallocPvm(ptr noundef %19, i64 noundef %20)
  store ptr %21, ptr @_ZL14yy_start_stack, align 8, !tbaa !138
  br label %22

22:                                               ; preds = %18, %15
  %23 = load ptr, ptr @_ZL14yy_start_stack, align 8, !tbaa !138
  %24 = icmp ne ptr %23, null
  br i1 %24, label %26, label %25

25:                                               ; preds = %22
  call void @_ZL14yy_fatal_errorPKc(ptr noundef @.str.236) #26
  unreachable

26:                                               ; preds = %22
  call void @llvm.lifetime.end.p0(i64 8, ptr %3) #3
  br label %27

27:                                               ; preds = %26, %1
  %28 = load i32, ptr @_ZL8yy_start, align 4, !tbaa !9
  %29 = sub nsw i32 %28, 1
  %30 = sdiv i32 %29, 2
  %31 = load ptr, ptr @_ZL14yy_start_stack, align 8, !tbaa !138
  %32 = load i32, ptr @_ZL18yy_start_stack_ptr, align 4, !tbaa !9
  %33 = add nsw i32 %32, 1
  store i32 %33, ptr @_ZL18yy_start_stack_ptr, align 4, !tbaa !9
  %34 = sext i32 %32 to i64
  %35 = getelementptr inbounds i32, ptr %31, i64 %34
  store i32 %30, ptr %35, align 4, !tbaa !9
  %36 = load i32, ptr %2, align 4, !tbaa !9
  %37 = mul nsw i32 2, %36
  %38 = add nsw i32 1, %37
  store i32 %38, ptr @_ZL8yy_start, align 4, !tbaa !9
  ret void
}

; Function Attrs: mustprogress uwtable
define dso_local void @_ZN8V3PreLex20pushStateIncFilenameEv(ptr noundef nonnull align 8 dereferenceable(264) %0) #5 align 2 {
  %2 = alloca ptr, align 8
  store ptr %0, ptr %2, align 8, !tbaa !26
  call void @_ZL13yy_push_statei(i32 noundef 10)
  store i32 1, ptr @_ZL12yy_more_flag, align 4, !tbaa !9
  ret void
}