; Function Attrs: mustprogress nounwind uwtable
define dso_local void @_ZN8V3PreLex20pushStateIncFilenameEv(ptr nonnull readnone align 8 captures(none) %0) local_unnamed_addr #7 align 2 {
  %2 = load i32, ptr @_ZL18yy_start_stack_ptr, align 4, !tbaa !9
  %3 = load i32, ptr @_ZL20yy_start_stack_depth, align 4, !tbaa !9
  %.not.i = icmp slt i32 %2, %3
  %.pre.i = load ptr, ptr @_ZL14yy_start_stack, align 8, !tbaa !703
  br i1 %.not.i, label %_ZL13yy_push_statei.exit, label %4

4:                                                ; preds = %1
  %5 = add nsw i32 %3, 25
  store i32 %5, ptr @_ZL20yy_start_stack_depth, align 4, !tbaa !9
  %6 = sext i32 %5 to i64
  %7 = shl nsw i64 %6, 2
  %.not4.i = icmp eq ptr %.pre.i, null
  br i1 %.not4.i, label %8, label %10

8:                                                ; preds = %4
  %9 = tail call noalias noundef ptr @malloc(i64 noundef %7) #41
  br label %12

10:                                               ; preds = %4
  %11 = tail call noalias noundef ptr @realloc(ptr noundef nonnull %.pre.i, i64 noundef %7) #43
  br label %12

12:                                               ; preds = %10, %8
  %storemerge.i = phi ptr [ %9, %8 ], [ %11, %10 ]
  store ptr %storemerge.i, ptr @_ZL14yy_start_stack, align 8, !tbaa !703
  %.not5.i = icmp eq ptr %storemerge.i, null
  br i1 %.not5.i, label %13, label %_ZL13yy_push_statei.exit

13:                                               ; preds = %12
  tail call fastcc void @_ZL14yy_fatal_errorPKc(ptr noundef nonnull @.str.236) #42
  unreachable

_ZL13yy_push_statei.exit:                         ; preds = %1, %12
  %14 = phi ptr [ %storemerge.i, %12 ], [ %.pre.i, %1 ]
  %15 = load i32, ptr @_ZL8yy_start, align 4, !tbaa !9
  %16 = add nsw i32 %15, -1
  %17 = sdiv i32 %16, 2
  %18 = add nsw i32 %2, 1
  store i32 %18, ptr @_ZL18yy_start_stack_ptr, align 4, !tbaa !9
  %19 = sext i32 %2 to i64
  %20 = getelementptr inbounds i32, ptr %14, i64 %19
  store i32 %17, ptr %20, align 4, !tbaa !9
  store i32 21, ptr @_ZL8yy_start, align 4, !tbaa !9
  store i1 true, ptr @_ZL12yy_more_flag, align 4
  ret void
}